     1                                  [org 0x7c00]
     2                                  [bits 16]
     3                                  
     4 00000000 BD0090                  mov bp, 0x9000
     5 00000003 89EC                    mov sp, bp
     6 00000005 E8EE00                  call c
     7 00000008 E8F100                  call b
     8 0000000B E80B00                  call f1
     9 0000000E E84000                  call f2
    10 00000011 E86F00                  call f3
    11 00000014 E8A600                  call f4
    12 00000017 EBFE                    jmp $
    13                                  
    14                                  f1:
    15 00000019 BE[3800]                    mov si, m1
    16 0000001C E81001                      call pr
    17 0000001F C7060095CDAB                mov word [0x9500], 0xABCD
    18 00000025 BE[4600]                    mov si, a1
    19 00000028 E80401                      call pr
    20 0000002B BACDAB                      mov dx, 0xABCD
    21 0000002E E80A01                      call hx
    22 00000031 BE[5501]                    mov si, o
    23 00000034 E8F800                      call pr
    24 00000037 C3                          ret
    25 00000038 0A0D5B312E414C4C4F-     m1: db 0xA,0xD,'[1.ALLOC]',0xA,0xD,0
    25 00000041 435D0A0D00         
    26 00000046 203078393530303D30-     a1: db ' 0x9500=0x',0
    26 0000004F 7800               
    27                                  
    28                                  f2:
    29 00000051 BE[6B00]                    mov si, m2
    30 00000054 E8D800                      call pr
    31 00000057 8B160095                    mov dx, [0x9500]
    32 0000005B BE[7800]                    mov si, a2
    33 0000005E E8CE00                      call pr
    34 00000061 E8D700                      call hx
    35 00000064 BE[5501]                    mov si, o
    36 00000067 E8C500                      call pr
    37 0000006A C3                          ret
    38 0000006B 0A0D5B322E52454144-     m2: db 0xA,0xD,'[2.READ]',0xA,0xD,0
    38 00000074 5D0A0D00           
    39 00000078 203078393530303D30-     a2: db ' 0x9500=0x',0
    39 00000081 7800               
    40                                  
    41                                  f3:
    42 00000083 BE[A100]                    mov si, m3
    43 00000086 E8A600                      call pr
    44 00000089 A10095                      mov ax, [0x9500]
    45 0000008C A30096                      mov [0x9600], ax
    46 0000008F 89C2                        mov dx, ax
    47 00000091 BE[AE00]                    mov si, a3
    48 00000094 E89800                      call pr
    49 00000097 E8A100                      call hx
    50 0000009A BE[5501]                    mov si, o
    51 0000009D E88F00                      call pr
    52 000000A0 C3                          ret
    53 000000A1 0A0D5B332E434F5059-     m3: db 0xA,0xD,'[3.COPY]',0xA,0xD,0
    53 000000AA 5D0A0D00           
    54 000000AE 20393530302D3E3936-     a3: db ' 9500->9600=0x',0
    54 000000B7 30303D307800       
    55                                  
    56                                  f4:
    57 000000BD BE[DD00]                    mov si, m4
    58 000000C0 E86C00                      call pr
    59 000000C3 C70600950000                mov word [0x9500], 0
    60 000000C9 BE[EB00]                    mov si, a4
    61 000000CC E86000                      call pr
    62 000000CF 8B160095                    mov dx, [0x9500]
    63 000000D3 E86500                      call hx
    64 000000D6 BE[5501]                    mov si, o
    65 000000D9 E85300                      call pr
    66 000000DC C3                          ret
    67 000000DD 0A0D5B342E434C4541-     m4: db 0xA,0xD,'[4.CLEAR]',0xA,0xD,0
    67 000000E6 525D0A0D00         
    68 000000EB 203078393530303D30-     a4: db ' 0x9500=0x',0
    68 000000F4 7800               
    69                                  
    70                                  c:
    71 000000F6 B80300                      mov ax, 0x0003
    72 000000F9 CD10                        int 0x10
    73 000000FB C3                          ret
    74                                  
    75                                  b:
    76 000000FC BE[0301]                    mov si, bn
    77 000000FF E82D00                      call pr
    78 00000102 C3                          ret
    79 00000103 3D3D3D204D454D4F52-     bn: db '=== MEMORY MANAGER ===',0xA,0xD,'By: Dennis Sharon',0xA,0xD,0
    79 0000010C 59204D414E41474552-
    79 00000115 203D3D3D0A0D42793A-
    79 0000011E 2044656E6E69732053-
    79 00000127 6861726F6E0A0D00   
    80                                  
    81                                  pr:
    82 0000012F B40E                        mov ah, 0x0e
    83 00000131 AC                      .l: lodsb
    84 00000132 84C0                        test al, al
    85 00000134 7404                        jz .d
    86 00000136 CD10                        int 0x10
    87 00000138 EBF7                        jmp .l
    88 0000013A C3                      .d: ret
    89                                  
    90                                  hx:
    91 0000013B B90400                      mov cx, 4
    92 0000013E C1C204                  .l: rol dx, 4
    93 00000141 89D0                        mov ax, dx
    94 00000143 240F                        and al, 0x0F
    95 00000145 0430                        add al, 0x30
    96 00000147 3C39                        cmp al, 0x39
    97 00000149 7E02                        jle .p
    98 0000014B 0407                        add al, 7
    99 0000014D B40E                    .p: mov ah, 0x0e
   100 0000014F CD10                        int 0x10
   101 00000151 49                          dec cx
   102 00000152 75EA                        jnz .l
   103 00000154 C3                          ret
   104                                  
   105 00000155 204F4B0A0D00            o: db ' OK',0xA,0xD,0
   106                                  
   107 0000015B 00<rep A3h>             times 510-($-$$) db 0
   108 000001FE 55AA                    dw 0xaa55
